target datalayout = "e-m:e-p270:32:32-p271:32:32-p272:64:64-i64:64-i128:128-f80:128-n8:16:32:64-S128"
target triple = "x86_64-pc-linux-gnu"

%struct._zend_array = type { %struct._zend_refcounted_h, %union.anon.4, i32, %union.anon.6, i32, i32, i32, i32, i64, ptr }
%struct._zend_refcounted_h = type { i32, %union.anon.3 }
%union.anon.3 = type { i32 }
%union.anon.4 = type { i32 }
%union.anon.6 = type { ptr }
%struct._zend_object_handlers = type { i32, ptr, ptr, ptr, ptr, ptr, ptr, ptr, ptr, ptr, ptr, ptr, ptr, ptr, ptr, ptr, ptr, ptr, ptr, ptr, ptr, ptr, ptr, ptr, ptr }
%struct._zend_class_entry = type { i8, ptr, %union.anon.8, i32, i32, i32, i32, ptr, ptr, ptr, %struct._zend_array, %struct._zend_array, %struct._zend_array, ptr, ptr, ptr, ptr, ptr, ptr, ptr, ptr, ptr, ptr, ptr, ptr, ptr, ptr, ptr, ptr, ptr, ptr, ptr, %union.anon.9, ptr, ptr, ptr, ptr, i32, i32, %union.anon.10, ptr, ptr, ptr, ptr, i32, ptr, ptr, %union.anon.11 }
%union.anon.8 = type { ptr }
%union.anon.9 = type { ptr }
%union.anon.10 = type { ptr }
%union.anon.11 = type { %struct.anon.12 }
%struct.anon.12 = type { ptr, i32, i32 }
%struct.anon.13 = type { ptr, ptr }

@spl_ce_SplFixedArray = global ptr null, align 8
@zend_ce_aggregate = external global ptr, align 8
@zend_ce_arrayaccess = external global ptr, align 8
@zend_ce_countable = external global ptr, align 8
@php_json_serializable_ce = external global ptr, align 8
@spl_handler_SplFixedArray = internal global %struct._zend_object_handlers zeroinitializer, align 8
@std_object_handlers = external constant %struct._zend_object_handlers, align 8
@zend_string_init_interned = external global ptr, align 8
@.str.11 = private unnamed_addr constant [14 x i8] c"SplFixedArray\00", align 1

; Function Attrs: nounwind uwtable
define internal ptr @register_class_SplFixedArray(ptr noundef %0, ptr noundef %1, ptr noundef %2, ptr noundef %3) #0 {
  %5 = alloca ptr, align 8
  %6 = alloca ptr, align 8
  %7 = alloca ptr, align 8
  %8 = alloca ptr, align 8
  %9 = alloca %struct._zend_class_entry, align 8
  %10 = alloca ptr, align 8
  store ptr %0, ptr %5, align 8
  store ptr %1, ptr %6, align 8
  store ptr %2, ptr %7, align 8
  store ptr %3, ptr %8, align 8
  call void @llvm.memset.p0.i64(ptr align 8 %9, i8 0, i64 512, i1 false)
  %11 = load ptr, ptr @zend_string_init_interned, align 8
  %12 = call ptr %11(ptr noundef @.str.11, i64 noundef 13, i1 noundef zeroext true)
  %13 = getelementptr inbounds %struct._zend_class_entry, ptr %9, i32 0, i32 1
  store ptr %12, ptr %13, align 8
  %14 = getelementptr inbounds %struct._zend_class_entry, ptr %9, i32 0, i32 29
  store ptr @std_object_handlers, ptr %14, align 8
  %15 = getelementptr inbounds %struct._zend_class_entry, ptr %9, i32 0, i32 47
  %16 = getelementptr inbounds %struct.anon.13, ptr %15, i32 0, i32 0
  store ptr @class_SplFixedArray_methods, ptr %16, align 8
  %17 = call ptr @zend_register_internal_class_ex(ptr noundef %9, ptr noundef null)
  store ptr %17, ptr %10, align 8
  %18 = load ptr, ptr %10, align 8
  %19 = load ptr, ptr %5, align 8
  %20 = load ptr, ptr %6, align 8
  %21 = load ptr, ptr %7, align 8
  %22 = load ptr, ptr %8, align 8
  call void (ptr, i32, ...) @zend_class_implements(ptr noundef %18, i32 noundef 4, ptr noundef %19, ptr noundef %20, ptr noundef %21, ptr noundef %22)
  %23 = load ptr, ptr %10, align 8
  ret ptr %23
}

; Function Attrs: nounwind uwtable
define hidden i32 @zm_startup_spl_fixedarray(i32 noundef %0, i32 noundef %1) #0 {
  %3 = alloca i32, align 4
  %4 = alloca i32, align 4
  store i32 %0, ptr %3, align 4
  store i32 %1, ptr %4, align 4
  %5 = load ptr, ptr @zend_ce_aggregate, align 8
  %6 = load ptr, ptr @zend_ce_arrayaccess, align 8
  %7 = load ptr, ptr @zend_ce_countable, align 8
  %8 = load ptr, ptr @php_json_serializable_ce, align 8
  %9 = call ptr @register_class_SplFixedArray(ptr noundef %5, ptr noundef %6, ptr noundef %7, ptr noundef %8)
  store ptr %9, ptr @spl_ce_SplFixedArray, align 8
  %10 = load ptr, ptr @spl_ce_SplFixedArray, align 8
  %11 = getelementptr inbounds %struct._zend_class_entry, ptr %10, i32 0, i32 32
  store ptr @spl_fixedarray_new, ptr %11, align 8
  %12 = load ptr, ptr @spl_ce_SplFixedArray, align 8
  %13 = getelementptr inbounds %struct._zend_class_entry, ptr %12, i32 0, i32 29
  store ptr @spl_handler_SplFixedArray, ptr %13, align 8
  %14 = load ptr, ptr @spl_ce_SplFixedArray, align 8
  %15 = getelementptr inbounds %struct._zend_class_entry, ptr %14, i32 0, i32 33
  store ptr @spl_fixedarray_get_iterator, ptr %15, align 8
  call void @llvm.memcpy.p0.p0.i64(ptr align 8 @spl_handler_SplFixedArray, ptr align 8 @std_object_handlers, i64 200, i1 false)
  store i32 32, ptr @spl_handler_SplFixedArray, align 8
  store ptr @spl_fixedarray_object_clone, ptr getelementptr inbounds (%struct._zend_object_handlers, ptr @spl_handler_SplFixedArray, i32 0, i32 3), align 8
  store ptr @spl_fixedarray_object_read_dimension, ptr getelementptr inbounds (%struct._zend_object_handlers, ptr @spl_handler_SplFixedArray, i32 0, i32 6), align 8
  store ptr @spl_fixedarray_object_write_dimension, ptr getelementptr inbounds (%struct._zend_object_handlers, ptr @spl_handler_SplFixedArray, i32 0, i32 7), align 8
  store ptr @spl_fixedarray_object_unset_dimension, ptr getelementptr inbounds (%struct._zend_object_handlers, ptr @spl_handler_SplFixedArray, i32 0, i32 12), align 8
  store ptr @spl_fixedarray_object_has_dimension, ptr getelementptr inbounds (%struct._zend_object_handlers, ptr @spl_handler_SplFixedArray, i32 0, i32 11), align 8
  store ptr @spl_fixedarray_object_count_elements, ptr getelementptr inbounds (%struct._zend_object_handlers, ptr @spl_handler_SplFixedArray, i32 0, i32 18), align 8
  store ptr @spl_fixedarray_object_get_properties_for, ptr getelementptr inbounds (%struct._zend_object_handlers, ptr @spl_handler_SplFixedArray, i32 0, i32 24), align 8
  store ptr @spl_fixedarray_object_get_gc, ptr getelementptr inbounds (%struct._zend_object_handlers, ptr @spl_handler_SplFixedArray, i32 0, i32 21), align 8
  store ptr @spl_fixedarray_object_free_storage, ptr getelementptr inbounds (%struct._zend_object_handlers, ptr @spl_handler_SplFixedArray, i32 0, i32 1), align 8
  ret i32 0
}