; Function Attrs: nounwind uwtable
define hidden noundef i32 @zm_startup_spl_fixedarray(i32 noundef %0, i32 noundef %1) local_unnamed_addr #0 {
  %3 = alloca %struct._zend_class_entry, align 8
  %4 = load ptr, ptr @zend_ce_aggregate, align 8
  %5 = load ptr, ptr @zend_ce_arrayaccess, align 8
  %6 = load ptr, ptr @zend_ce_countable, align 8
  %7 = load ptr, ptr @php_json_serializable_ce, align 8
  call void @llvm.lifetime.start.p0(i64 512, ptr nonnull %3)
  call void @llvm.memset.p0.i64(ptr noundef nonnull align 8 dereferenceable(512) %3, i8 0, i64 512, i1 false)
  %8 = load ptr, ptr @zend_string_init_interned, align 8
  %9 = tail call ptr %8(ptr noundef nonnull @.str.11, i64 noundef 13, i1 noundef zeroext true) #12
  %10 = getelementptr inbounds i8, ptr %3, i64 8
  store ptr %9, ptr %10, align 8
  %11 = getelementptr inbounds i8, ptr %3, i64 360
  store ptr @std_object_handlers, ptr %11, align 8
  %12 = getelementptr inbounds i8, ptr %3, i64 496
  store ptr @class_SplFixedArray_methods, ptr %12, align 8
  %13 = call ptr @zend_register_internal_class_ex(ptr noundef nonnull %3, ptr noundef null) #12
  call void (ptr, i32, ...) @zend_class_implements(ptr noundef %13, i32 noundef 4, ptr noundef %4, ptr noundef %5, ptr noundef %6, ptr noundef %7) #12
  call void @llvm.lifetime.end.p0(i64 512, ptr nonnull %3)
  store ptr %13, ptr @spl_ce_SplFixedArray, align 8
  %14 = getelementptr inbounds i8, ptr %13, i64 384
  store ptr @spl_fixedarray_new, ptr %14, align 8
  %15 = getelementptr inbounds i8, ptr %13, i64 360
  store ptr @spl_handler_SplFixedArray, ptr %15, align 8
  %16 = getelementptr inbounds i8, ptr %13, i64 392
  store ptr @spl_fixedarray_get_iterator, ptr %16, align 8
  call void @llvm.memcpy.p0.p0.i64(ptr noundef nonnull align 8 dereferenceable(200) @spl_handler_SplFixedArray, ptr noundef nonnull align 8 dereferenceable(200) @std_object_handlers, i64 192, i1 false)
  store i32 32, ptr @spl_handler_SplFixedArray, align 8
  store ptr @spl_fixedarray_object_clone, ptr getelementptr inbounds (%struct._zend_object_handlers, ptr @spl_handler_SplFixedArray, i64 0, i32 3), align 8
  store ptr @spl_fixedarray_object_read_dimension, ptr getelementptr inbounds (%struct._zend_object_handlers, ptr @spl_handler_SplFixedArray, i64 0, i32 6), align 8
  store ptr @spl_fixedarray_object_write_dimension, ptr getelementptr inbounds (%struct._zend_object_handlers, ptr @spl_handler_SplFixedArray, i64 0, i32 7), align 8
  store ptr @spl_fixedarray_object_unset_dimension, ptr getelementptr inbounds (%struct._zend_object_handlers, ptr @spl_handler_SplFixedArray, i64 0, i32 12), align 8
  store ptr @spl_fixedarray_object_has_dimension, ptr getelementptr inbounds (%struct._zend_object_handlers, ptr @spl_handler_SplFixedArray, i64 0, i32 11), align 8
  store ptr @spl_fixedarray_object_count_elements, ptr getelementptr inbounds (%struct._zend_object_handlers, ptr @spl_handler_SplFixedArray, i64 0, i32 18), align 8
  store ptr @spl_fixedarray_object_get_properties_for, ptr getelementptr inbounds (%struct._zend_object_handlers, ptr @spl_handler_SplFixedArray, i64 0, i32 24), align 8
  store ptr @spl_fixedarray_object_get_gc, ptr getelementptr inbounds (%struct._zend_object_handlers, ptr @spl_handler_SplFixedArray, i64 0, i32 21), align 8
  store ptr @spl_fixedarray_object_free_storage, ptr getelementptr inbounds (%struct._zend_object_handlers, ptr @spl_handler_SplFixedArray, i64 0, i32 1), align 8
  ret i32 0
}